target datalayout = "e-m:e-p270:32:32-p271:32:32-p272:64:64-i64:64-i128:128-f80:128-n8:16:32:64-S128"
target triple = "x86_64-pc-linux-gnu"

%struct.Vec_Int_t_ = type { i32, i32, ptr }
%struct.Abc_Obj_t_ = type { ptr, ptr, i32, i32, %struct.Vec_Int_t_, %struct.Vec_Int_t_, %union.anon, %union.anon.0 }
%union.anon = type { ptr }
%union.anon.0 = type { ptr }

@.str.41 = private unnamed_addr constant [5 x i8] c"1 1\0A\00", align 1
@.str.42 = private unnamed_addr constant [5 x i8] c"0 1\0A\00", align 1
@.str.43 = private unnamed_addr constant [6 x i8] c"11 1\0A\00", align 1
@.str.44 = private unnamed_addr constant [6 x i8] c"11 0\0A\00", align 1
@.str.45 = private unnamed_addr constant [6 x i8] c"00 0\0A\00", align 1
@.str.46 = private unnamed_addr constant [6 x i8] c"00 1\0A\00", align 1
@.str.47 = private unnamed_addr constant [11 x i8] c"01 1\0A10 1\0A\00", align 1
@.str.48 = private unnamed_addr constant [11 x i8] c"11 1\0A00 1\0A\00", align 1

; Function Attrs: inlinehint nounwind uwtable
define internal i32 @Abc_ObjFinGateType(ptr noundef %0) #3 {
  %2 = alloca i32, align 4
  %3 = alloca ptr, align 8
  %4 = alloca ptr, align 8
  %5 = alloca i32, align 4
  store ptr %0, ptr %3, align 8, !tbaa !32
  call void @llvm.lifetime.start.p0(i64 8, ptr %4) #14
  %6 = load ptr, ptr %3, align 8, !tbaa !32
  %7 = getelementptr inbounds nuw %struct.Abc_Obj_t_, ptr %6, i32 0, i32 6
  %8 = load ptr, ptr %7, align 8, !tbaa !34
  store ptr %8, ptr %4, align 8, !tbaa !8
  %9 = load ptr, ptr %4, align 8, !tbaa !8
  %10 = call i32 @strcmp(ptr noundef %9, ptr noundef @.str.41) #15
  %11 = icmp ne i32 %10, 0
  br i1 %11, label %13, label %12

12:                                               ; preds = %1
  store i32 -89, ptr %2, align 4
  store i32 1, ptr %5, align 4
  br label %49

13:                                               ; preds = %1
  %14 = load ptr, ptr %4, align 8, !tbaa !8
  %15 = call i32 @strcmp(ptr noundef %14, ptr noundef @.str.42) #15
  %16 = icmp ne i32 %15, 0
  br i1 %16, label %18, label %17

17:                                               ; preds = %13
  store i32 -90, ptr %2, align 4
  store i32 1, ptr %5, align 4
  br label %49

18:                                               ; preds = %13
  %19 = load ptr, ptr %4, align 8, !tbaa !8
  %20 = call i32 @strcmp(ptr noundef %19, ptr noundef @.str.43) #15
  %21 = icmp ne i32 %20, 0
  br i1 %21, label %23, label %22

22:                                               ; preds = %18
  store i32 -96, ptr %2, align 4
  store i32 1, ptr %5, align 4
  br label %49

23:                                               ; preds = %18
  %24 = load ptr, ptr %4, align 8, !tbaa !8
  %25 = call i32 @strcmp(ptr noundef %24, ptr noundef @.str.44) #15
  %26 = icmp ne i32 %25, 0
  br i1 %26, label %28, label %27

27:                                               ; preds = %23
  store i32 -95, ptr %2, align 4
  store i32 1, ptr %5, align 4
  br label %49

28:                                               ; preds = %23
  %29 = load ptr, ptr %4, align 8, !tbaa !8
  %30 = call i32 @strcmp(ptr noundef %29, ptr noundef @.str.45) #15
  %31 = icmp ne i32 %30, 0
  br i1 %31, label %33, label %32

32:                                               ; preds = %28
  store i32 -94, ptr %2, align 4
  store i32 1, ptr %5, align 4
  br label %49

33:                                               ; preds = %28
  %34 = load ptr, ptr %4, align 8, !tbaa !8
  %35 = call i32 @strcmp(ptr noundef %34, ptr noundef @.str.46) #15
  %36 = icmp ne i32 %35, 0
  br i1 %36, label %38, label %37

37:                                               ; preds = %33
  store i32 -93, ptr %2, align 4
  store i32 1, ptr %5, align 4
  br label %49

38:                                               ; preds = %33
  %39 = load ptr, ptr %4, align 8, !tbaa !8
  %40 = call i32 @strcmp(ptr noundef %39, ptr noundef @.str.47) #15
  %41 = icmp ne i32 %40, 0
  br i1 %41, label %43, label %42

42:                                               ; preds = %38
  store i32 -92, ptr %2, align 4
  store i32 1, ptr %5, align 4
  br label %49

43:                                               ; preds = %38
  %44 = load ptr, ptr %4, align 8, !tbaa !8
  %45 = call i32 @strcmp(ptr noundef %44, ptr noundef @.str.48) #15
  %46 = icmp ne i32 %45, 0
  br i1 %46, label %48, label %47

47:                                               ; preds = %43
  store i32 -91, ptr %2, align 4
  store i32 1, ptr %5, align 4
  br label %49

48:                                               ; preds = %43
  store i32 -100, ptr %2, align 4
  store i32 1, ptr %5, align 4
  br label %49

49:                                               ; preds = %48, %47, %42, %37, %32, %27, %22, %17, %12
  call void @llvm.lifetime.end.p0(i64 8, ptr %4) #14
  %50 = load i32, ptr %2, align 4
  ret i32 %50
}