; Function Attrs: inlinehint mustprogress nofree nounwind willreturn memory(argmem: read) uwtable
define internal fastcc range(i32 -100, -88) i32 @Abc_ObjFinGateType(ptr readonly captures(none) %.56.val) unnamed_addr #13 {
  %1 = tail call i32 @strcmp(ptr noundef nonnull dereferenceable(1) %.56.val, ptr noundef nonnull dereferenceable(5) @.str.41) #33
  %.not = icmp eq i32 %1, 0
  br i1 %.not, label %16, label %2

2:                                                ; preds = %0
  %3 = tail call i32 @strcmp(ptr noundef nonnull dereferenceable(1) %.56.val, ptr noundef nonnull dereferenceable(5) @.str.42) #33
  %.not9 = icmp eq i32 %3, 0
  br i1 %.not9, label %16, label %4

4:                                                ; preds = %2
  %5 = tail call i32 @strcmp(ptr noundef nonnull dereferenceable(1) %.56.val, ptr noundef nonnull dereferenceable(6) @.str.43) #33
  %.not10 = icmp eq i32 %5, 0
  br i1 %.not10, label %16, label %6

6:                                                ; preds = %4
  %7 = tail call i32 @strcmp(ptr noundef nonnull dereferenceable(1) %.56.val, ptr noundef nonnull dereferenceable(6) @.str.44) #33
  %.not11 = icmp eq i32 %7, 0
  br i1 %.not11, label %16, label %8

8:                                                ; preds = %6
  %9 = tail call i32 @strcmp(ptr noundef nonnull dereferenceable(1) %.56.val, ptr noundef nonnull dereferenceable(6) @.str.45) #33
  %.not12 = icmp eq i32 %9, 0
  br i1 %.not12, label %16, label %10

10:                                               ; preds = %8
  %11 = tail call i32 @strcmp(ptr noundef nonnull dereferenceable(1) %.56.val, ptr noundef nonnull dereferenceable(6) @.str.46) #33
  %.not13 = icmp eq i32 %11, 0
  br i1 %.not13, label %16, label %12

12:                                               ; preds = %10
  %13 = tail call i32 @strcmp(ptr noundef nonnull dereferenceable(1) %.56.val, ptr noundef nonnull dereferenceable(11) @.str.47) #33
  %.not14 = icmp eq i32 %13, 0
  br i1 %.not14, label %16, label %14

14:                                               ; preds = %12
  %15 = tail call i32 @strcmp(ptr noundef nonnull dereferenceable(1) %.56.val, ptr noundef nonnull dereferenceable(11) @.str.48) #33
  %.not15 = icmp eq i32 %15, 0
  %. = select i1 %.not15, i32 -91, i32 -100
  br label %16

16:                                               ; preds = %14, %12, %10, %8, %6, %4, %2, %0
  %.0 = phi i32 [ -89, %0 ], [ -90, %2 ], [ -96, %4 ], [ -95, %6 ], [ -94, %8 ], [ -93, %10 ], [ -92, %12 ], [ %., %14 ]
  ret i32 %.0
}